target datalayout = "e-m:e-p270:32:32-p271:32:32-p272:64:64-i64:64-i128:128-f80:128-n8:16:32:64-S128"
target triple = "x86_64-unknown-linux-gnu"

@.str = private unnamed_addr constant [22 x i8] c"pci:%04x:%02x:%02x.%d\00", align 1

; Function Attrs: fn_ret_thunk_extern nounwind null_pointer_is_valid
define dso_local noundef i32 @drm_pci_set_busid(ptr nocapture noundef readonly %0, ptr nocapture noundef writeonly %1) local_unnamed_addr #0 align 16 {
  %3 = getelementptr inbounds i8, ptr %0, i64 8
  %4 = load ptr, ptr %3, align 8
  %5 = load i32, ptr %0, align 8
  %6 = icmp slt i32 %5, 65540
  br i1 %6, label %13, label %7

7:                                                ; preds = %2
  %8 = getelementptr i8, ptr %4, i64 -168
  %9 = load ptr, ptr %8, align 8
  %10 = getelementptr inbounds i8, ptr %9, i64 200
  %11 = load ptr, ptr %10, align 8
  %12 = load i32, ptr %11, align 8
  br label %13

13:                                               ; preds = %7, %2
  %14 = phi i32 [ %12, %7 ], [ 0, %2 ]
  %15 = getelementptr i8, ptr %4, i64 -168
  %16 = load ptr, ptr %15, align 8
  %17 = getelementptr inbounds i8, ptr %16, i64 216
  %18 = load i8, ptr %17, align 8
  %19 = zext i8 %18 to i32
  %20 = getelementptr i8, ptr %4, i64 -128
  %21 = load i32, ptr %20, align 8
  %22 = lshr i32 %21, 3
  %23 = and i32 %22, 31
  %24 = and i32 %21, 7
  %25 = tail call noalias ptr (i32, ptr, ...) @kasprintf(i32 noundef 3264, ptr noundef nonnull @.str, i32 noundef %14, i32 noundef %19, i32 noundef %23, i32 noundef %24) #3
  %26 = getelementptr inbounds i8, ptr %1, i64 16
  store ptr %25, ptr %26, align 8
  %27 = icmp eq ptr %25, null
  br i1 %27, label %32, label %28

28:                                               ; preds = %13
  %29 = tail call i64 @strlen(ptr noundef nonnull dereferenceable(1) %25) #3
  %30 = trunc i64 %29 to i32
  %31 = getelementptr inbounds i8, ptr %1, i64 24
  store i32 %30, ptr %31, align 8
  br label %32

32:                                               ; preds = %28, %13
  %33 = phi i32 [ 0, %28 ], [ -12, %13 ]
  ret i32 %33
}

; Function Attrs: null_pointer_is_valid
declare dso_local noalias ptr @kasprintf(i32 noundef, ptr noundef, ...) local_unnamed_addr #1

; Function Attrs: mustprogress nofree nounwind null_pointer_is_valid willreturn memory(argmem: read)
declare dso_local i64 @strlen(ptr nocapture noundef) local_unnamed_addr #2


!llvm.module.flags = !{!0, !1, !2, !3, !4}

!0 = !{i32 1, !"wchar_size", i32 2}
!1 = !{i32 8, !"cf-protection-branch", i32 1}
!2 = !{i32 4, !"function_return_thunk_extern", i32 1}
!3 = !{i32 4, !"indirect_branch_cs_prefix", i32 1}
!4 = !{i32 4, !"SkipRaxSetup", i32 1}
