; ModuleID = 'bench/linux/original/drm_pci.ll'
source_filename = "bench/linux/original/drm_pci.ll"
target datalayout = "e-m:e-p270:32:32-p271:32:32-p272:64:64-i64:64-i128:128-f80:128-n8:16:32:64-S128"
target triple = "x86_64-unknown-linux-gnu"

@.str = private unnamed_addr constant [22 x i8] c"pci:%04x:%02x:%02x.%d\00", align 1

; Function Attrs: fn_ret_thunk_extern nounwind null_pointer_is_valid
define dso_local noundef i32 @drm_pci_set_busid(ptr nocapture noundef readonly %0, ptr nocapture noundef writeonly %1) local_unnamed_addr #0 align 16 {
  %3 = getelementptr inbounds i8, ptr %0, i64 8
  %4 = load ptr, ptr %3, align 8
  %5 = load i32, ptr %0, align 8
  %6 = icmp slt i32 %5, 65540
  %.phi.trans.insert = getelementptr i8, ptr %4, i64 -168
  %.pre = load ptr, ptr %.phi.trans.insert, align 8
  br i1 %6, label %._crit_edge, label %7

7:                                                ; preds = %2
  %8 = getelementptr inbounds i8, ptr %.pre, i64 200
  %9 = load ptr, ptr %8, align 8
  %10 = load i32, ptr %9, align 8
  br label %._crit_edge

._crit_edge:                                      ; preds = %2, %7
  %11 = phi i32 [ %10, %7 ], [ 0, %2 ]
  %12 = getelementptr inbounds i8, ptr %.pre, i64 216
  %13 = load i8, ptr %12, align 8
  %14 = zext i8 %13 to i32
  %15 = getelementptr i8, ptr %4, i64 -128
  %16 = load i32, ptr %15, align 8
  %17 = lshr i32 %16, 3
  %18 = and i32 %17, 31
  %19 = and i32 %16, 7
  %20 = tail call noalias ptr (i32, ptr, ...) @kasprintf(i32 noundef 3264, ptr noundef nonnull @.str, i32 noundef %11, i32 noundef %14, i32 noundef %18, i32 noundef %19) #3
  %21 = getelementptr inbounds i8, ptr %1, i64 16
  store ptr %20, ptr %21, align 8
  %22 = icmp eq ptr %20, null
  br i1 %22, label %27, label %23

23:                                               ; preds = %._crit_edge
  %24 = tail call i64 @strlen(ptr noundef nonnull dereferenceable(1) %20) #3
  %25 = trunc i64 %24 to i32
  %26 = getelementptr inbounds i8, ptr %1, i64 24
  store i32 %25, ptr %26, align 8
  br label %27

27:                                               ; preds = %23, %._crit_edge
  %28 = phi i32 [ 0, %23 ], [ -12, %._crit_edge ]
  ret i32 %28
}

; Function Attrs: null_pointer_is_valid
declare dso_local noalias ptr @kasprintf(i32 noundef, ptr noundef, ...) local_unnamed_addr #1

; Function Attrs: mustprogress nofree nounwind null_pointer_is_valid willreturn memory(argmem: read)
declare dso_local i64 @strlen(ptr nocapture noundef) local_unnamed_addr #2


!llvm.module.flags = !{!0, !1, !2, !3, !4}

!0 = !{i32 1, !"wchar_size", i32 2}
!1 = !{i32 8, !"cf-protection-branch", i32 1}
!2 = !{i32 4, !"function_return_thunk_extern", i32 1}
!3 = !{i32 4, !"indirect_branch_cs_prefix", i32 1}
!4 = !{i32 4, !"SkipRaxSetup", i32 1}
